; ModuleID = '32/452.c'
source_filename = "32/452.c"
target datalayout = "e-m:e-p270:32:32-p271:32:32-p272:64:64-i64:64-f80:128-n8:16:32:64-S128"
target triple = "x86_64-pc-linux-gnu"

@.str = private unnamed_addr constant [3 x i8] c"%d\00", align 1
@.str.1 = private unnamed_addr constant [3 x i8] c"%s\00", align 1
@.str.2 = private unnamed_addr constant [2 x i8] c"\0A\00", align 1

; Function Attrs: noinline nounwind uwtable
define dso_local i32 @main() #0 {
  %1 = alloca i32, align 4
  %2 = alloca i32, align 4
  %3 = alloca i32, align 4
  %4 = alloca i32, align 4
  %5 = alloca [100 x i32], align 16
  %6 = alloca [100 x i32], align 16
  %7 = alloca i32, align 4
  %8 = alloca i32, align 4
  %9 = alloca [100 x i8], align 16
  %10 = alloca [100 x i8], align 16
  store i32 0, i32* %1, align 4
  %11 = call i32 (i8*, ...) @__isoc99_scanf(i8* getelementptr inbounds ([3 x i8], [3 x i8]* @.str, i64 0, i64 0), i32* %2)
  br label %12

12:                                               ; preds = %150, %0
  %13 = load i32, i32* %2, align 4
  %14 = add nsw i32 %13, -1
  store i32 %14, i32* %2, align 4
  %15 = icmp ne i32 %13, 0
  br i1 %15, label %16, label %152

16:                                               ; preds = %12
  %17 = getelementptr inbounds [100 x i8], [100 x i8]* %9, i64 0, i64 0
  %18 = call i32 (i8*, ...) @__isoc99_scanf(i8* getelementptr inbounds ([3 x i8], [3 x i8]* @.str.1, i64 0, i64 0), i8* %17)
  %19 = getelementptr inbounds [100 x i8], [100 x i8]* %10, i64 0, i64 0
  %20 = call i32 (i8*, ...) @__isoc99_scanf(i8* getelementptr inbounds ([3 x i8], [3 x i8]* @.str.1, i64 0, i64 0), i8* %19)
  %21 = getelementptr inbounds [100 x i8], [100 x i8]* %9, i64 0, i64 0
  %22 = call i64 @strlen(i8* %21) #3
  %23 = trunc i64 %22 to i32
  store i32 %23, i32* %7, align 4
  %24 = getelementptr inbounds [100 x i8], [100 x i8]* %10, i64 0, i64 0
  %25 = call i64 @strlen(i8* %24) #3
  %26 = trunc i64 %25 to i32
  store i32 %26, i32* %8, align 4
  store i32 0, i32* %3, align 4
  br label %27

27:                                               ; preds = %37, %16
  %28 = load i32, i32* %3, align 4
  %29 = icmp slt i32 %28, 100
  br i1 %29, label %30, label %40

30:                                               ; preds = %27
  %31 = load i32, i32* %3, align 4
  %32 = sext i32 %31 to i64
  %33 = getelementptr inbounds [100 x i32], [100 x i32]* %5, i64 0, i64 %32
  store i32 0, i32* %33, align 4
  %34 = load i32, i32* %3, align 4
  %35 = sext i32 %34 to i64
  %36 = getelementptr inbounds [100 x i32], [100 x i32]* %6, i64 0, i64 %35
  store i32 0, i32* %36, align 4
  br label %37

37:                                               ; preds = %30
  %38 = load i32, i32* %3, align 4
  %39 = add nsw i32 %38, 1
  store i32 %39, i32* %3, align 4
  br label %27

40:                                               ; preds = %27
  store i32 0, i32* %3, align 4
  br label %41

41:                                               ; preds = %58, %40
  %42 = load i32, i32* %3, align 4
  %43 = load i32, i32* %7, align 4
  %44 = icmp slt i32 %42, %43
  br i1 %44, label %45, label %61

45:                                               ; preds = %41
  %46 = load i32, i32* %3, align 4
  %47 = sext i32 %46 to i64
  %48 = getelementptr inbounds [100 x i8], [100 x i8]* %9, i64 0, i64 %47
  %49 = load i8, i8* %48, align 1
  %50 = sext i8 %49 to i32
  %51 = sub nsw i32 %50, 48
  %52 = load i32, i32* %7, align 4
  %53 = sub nsw i32 %52, 1
  %54 = load i32, i32* %3, align 4
  %55 = sub nsw i32 %53, %54
  %56 = sext i32 %55 to i64
  %57 = getelementptr inbounds [100 x i32], [100 x i32]* %5, i64 0, i64 %56
  store i32 %51, i32* %57, align 4
  br label %58

58:                                               ; preds = %45
  %59 = load i32, i32* %3, align 4
  %60 = add nsw i32 %59, 1
  store i32 %60, i32* %3, align 4
  br label %41

61:                                               ; preds = %41
  store i32 0, i32* %3, align 4
  br label %62

62:                                               ; preds = %79, %61
  %63 = load i32, i32* %3, align 4
  %64 = load i32, i32* %8, align 4
  %65 = icmp slt i32 %63, %64
  br i1 %65, label %66, label %82

66:                                               ; preds = %62
  %67 = load i32, i32* %3, align 4
  %68 = sext i32 %67 to i64
  %69 = getelementptr inbounds [100 x i8], [100 x i8]* %10, i64 0, i64 %68
  %70 = load i8, i8* %69, align 1
  %71 = sext i8 %70 to i32
  %72 = sub nsw i32 %71, 48
  %73 = load i32, i32* %8, align 4
  %74 = sub nsw i32 %73, 1
  %75 = load i32, i32* %3, align 4
  %76 = sub nsw i32 %74, %75
  %77 = sext i32 %76 to i64
  %78 = getelementptr inbounds [100 x i32], [100 x i32]* %6, i64 0, i64 %77
  store i32 %72, i32* %78, align 4
  br label %79

79:                                               ; preds = %66
  %80 = load i32, i32* %3, align 4
  %81 = add nsw i32 %80, 1
  store i32 %81, i32* %3, align 4
  br label %62

82:                                               ; preds = %62
  store i32 0, i32* %3, align 4
  br label %83

83:                                               ; preds = %115, %82
  %84 = load i32, i32* %3, align 4
  %85 = load i32, i32* %7, align 4
  %86 = icmp slt i32 %84, %85
  br i1 %86, label %87, label %118

87:                                               ; preds = %83
  %88 = load i32, i32* %3, align 4
  %89 = sext i32 %88 to i64
  %90 = getelementptr inbounds [100 x i32], [100 x i32]* %6, i64 0, i64 %89
  %91 = load i32, i32* %90, align 4
  %92 = load i32, i32* %3, align 4
  %93 = sext i32 %92 to i64
  %94 = getelementptr inbounds [100 x i32], [100 x i32]* %5, i64 0, i64 %93
  %95 = load i32, i32* %94, align 4
  %96 = sub nsw i32 %95, %91
  store i32 %96, i32* %94, align 4
  %97 = load i32, i32* %3, align 4
  %98 = sext i32 %97 to i64
  %99 = getelementptr inbounds [100 x i32], [100 x i32]* %5, i64 0, i64 %98
  %100 = load i32, i32* %99, align 4
  %101 = icmp slt i32 %100, 0
  br i1 %101, label %102, label %114

102:                                              ; preds = %87
  %103 = load i32, i32* %3, align 4
  %104 = add nsw i32 %103, 1
  %105 = sext i32 %104 to i64
  %106 = getelementptr inbounds [100 x i32], [100 x i32]* %5, i64 0, i64 %105
  %107 = load i32, i32* %106, align 4
  %108 = add nsw i32 %107, -1
  store i32 %108, i32* %106, align 4
  %109 = load i32, i32* %3, align 4
  %110 = sext i32 %109 to i64
  %111 = getelementptr inbounds [100 x i32], [100 x i32]* %5, i64 0, i64 %110
  %112 = load i32, i32* %111, align 4
  %113 = add nsw i32 %112, 10
  store i32 %113, i32* %111, align 4
  br label %114

114:                                              ; preds = %102, %87
  br label %115

115:                                              ; preds = %114
  %116 = load i32, i32* %3, align 4
  %117 = add nsw i32 %116, 1
  store i32 %117, i32* %3, align 4
  br label %83

118:                                              ; preds = %83
  %119 = load i32, i32* %7, align 4
  %120 = sub nsw i32 %119, 1
  store i32 %120, i32* %3, align 4
  br label %121

121:                                              ; preds = %133, %118
  %122 = load i32, i32* %3, align 4
  %123 = icmp sge i32 %122, 0
  br i1 %123, label %124, label %136

124:                                              ; preds = %121
  %125 = load i32, i32* %3, align 4
  %126 = sext i32 %125 to i64
  %127 = getelementptr inbounds [100 x i32], [100 x i32]* %5, i64 0, i64 %126
  %128 = load i32, i32* %127, align 4
  %129 = icmp ne i32 %128, 0
  br i1 %129, label %130, label %132

130:                                              ; preds = %124
  %131 = load i32, i32* %3, align 4
  store i32 %131, i32* %4, align 4
  br label %136

132:                                              ; preds = %124
  br label %133

133:                                              ; preds = %132
  %134 = load i32, i32* %3, align 4
  %135 = add nsw i32 %134, -1
  store i32 %135, i32* %3, align 4
  br label %121

136:                                              ; preds = %130, %121
  %137 = load i32, i32* %4, align 4
  store i32 %137, i32* %3, align 4
  br label %138

138:                                              ; preds = %147, %136
  %139 = load i32, i32* %3, align 4
  %140 = icmp sge i32 %139, 0
  br i1 %140, label %141, label %150

141:                                              ; preds = %138
  %142 = load i32, i32* %3, align 4
  %143 = sext i32 %142 to i64
  %144 = getelementptr inbounds [100 x i32], [100 x i32]* %5, i64 0, i64 %143
  %145 = load i32, i32* %144, align 4
  %146 = call i32 (i8*, ...) @printf(i8* getelementptr inbounds ([3 x i8], [3 x i8]* @.str, i64 0, i64 0), i32 %145)
  br label %147

147:                                              ; preds = %141
  %148 = load i32, i32* %3, align 4
  %149 = add nsw i32 %148, -1
  store i32 %149, i32* %3, align 4
  br label %138

150:                                              ; preds = %138
  %151 = call i32 (i8*, ...) @printf(i8* getelementptr inbounds ([2 x i8], [2 x i8]* @.str.2, i64 0, i64 0))
  br label %12

152:                                              ; preds = %12
  ret i32 0
}

declare dso_local i32 @__isoc99_scanf(i8*, ...) #1

; Function Attrs: nounwind readonly
declare dso_local i64 @strlen(i8*) #2

declare dso_local i32 @printf(i8*, ...) #1


!llvm.module.flags = !{!0}
!llvm.ident = !{!1}

!0 = !{i32 1, !"wchar_size", i32 4}
!1 = !{!"clang version 10.0.0-4ubuntu1 "}
